(dp0
S'CP000556.txt'
p1
(lp2
S'599445'
p3
asS'BA000045.txt'
p4
(lp5
S'4659020'
p6
asS'CP000352.txt'
p7
(lp8
S'3928090'
p9
asS'CP001002.txt'
p10
(lp11
S'586165'
p12
asS'CP001722.txt'
p13
(lp14
S'2124772'
p15
asS'CP001341.txt'
p16
(lp17
S'4395538'
p18
asS'CP000619.txt'
p19
(lp20
S'226680'
p21
asS'FN650140.txt'
p22
(lp23
S'4077333'
p24
asS'CP002448.txt'
p25
(lp26
S'425540'
p27
asS'CP002446.txt'
p28
(lp29
S'3419050'
p30
asS'CP000059.txt'
p31
(lp32
S'131951'
p33
asS'CP002480.txt'
p34
(lp35
S'4309154'
p36
asS'AP010968.txt'
p37
(lp38
S'8783279'
p39
asS'CU466930.txt'
p40
(lp41
S'2246821'
p42
asS'CP001007.txt'
p43
(lp44
S'27837'
p45
asS'AM236082.txt'
p46
(lp47
S'147464'
p48
asS'FR845719.txt'
p49
(lp50
S'8226159'
p51
asS'CP001349.txt'
p52
(lp53
S'7772461'
p54
asS'CP000355.txt'
p55
(lp56
S'171460'
p57
asS'AP011122.txt'
p58
(lp59
S'191800'
p60
asS'CP001681.txt'
p61
(lp62
S'5167384'
p63
asS'FN554889.txt'
p64
(lp65
S'10148696'
p66
asS'CP000112.txt'
p67
(lp68
S'3730233'
p69
asS'BA000035.txt'
p70
(lp71
S'3147091'
p72
asS'CP000750.txt'
p73
(lp74
S'4761184'
p75
asS'CP000455.txt'
p76
(lp77
S'159539'
p78
asS'AP011126.txt'
p79
(lp80
S'3036'
p81
asS'AL009126.txt'
p82
(lp83
S'4215607'
p84
asS'CP000432.txt'
p85
(lp86
S'1123076'
p87
asS'CP002508.txt'
p88
(lp89
S'5355491'
p90
asS'CP000104.txt'
p91
(lp92
S'18872'
p93
asS'CP001354.txt'
p94
(lp95
S'20287'
p96
asS'AP008230.txt'
p97
(lp98
S'5727535'
p99
asS'CP001999.txt'
p100
(lp101
S'3192236'
p102
asS'CP000738.txt'
p103
(lp104
S'3781905'
p105
asS'CP001037.txt'
p106
(lp107
S'8234323'
p108
asS'CP001643.txt'
p109
(lp110
S'3614993'
p111
asS'CP002047.txt'
p112
(lp113
S'11936684'
p114
asS'CP002417.txt'
p115
(lp116
S'6550057'
p117
asS'CP002289.txt'
p118
(lp119
S'247896'
p120
asS'CP001657.txt'
p121
(lp122
S'4862914'
p123
asS'CP001358.txt'
p124
(lp125
S'2873438'
p126
asS'CP000617.txt'
p127
(lp128
S'397869'
p129
asS'CP002485.txt'
p130
(lp131
S'115222'
p132
asS'AP010947.txt'
p133
(lp134
S'1455110'
p135
asS'FP103043.txt'
p136
(lp137
S'141505'
p138
asS'CP000618.txt'
p139
(lp140
S'265617'
p141
asS'CP001737.txt'
p142
(lp143
S'6060299'
p144
asS'CP001190.txt'
p145
(lp146
S'27456'
p147
asS'CP001043.txt'
p148
(lp149
S'3479188'
p150
asS'CP000663.txt'
p151
(lp152
S'289490'
p153
asS'CP001389.txt'
p154
(lp155
S'3925703'
p156
asS'CP000479.txt'
p157
(lp158
S'5475492'
p159
asS'CP001295.txt'
p160
(lp161
S'22637'
p162
asS'CP001069.txt'
p163
(lp164
S'1302239'
p165
asS'CP000105.txt'
p166
(lp167
S'17037'
p168
asS'CP000460.txt'
p169
(lp170
S'1055418'
p171
asS'CP001648.txt'
p172
(lp173
S'51399'
p174
asS'AE016853.txt'
p175
(lp176
S'6397127'
p177
asS'CP001702.txt'
p178
(lp179
S'75679'
p180
asS'CP000009.txt'
p181
(lp182
S'2702174'
p183
asS'CP001350.txt'
p184
(lp185
S'487735'
p186
asS'CP001013.txt'
p187
(lp188
S'4909404'
p189
asS'AP010805.txt'
p190
(lp191
S'190975'
p192
asS'FN557490.txt'
p193
(lp194
S'2797637'
p195
asS'AP011120.txt'
p196
(lp197
S'2774'
p198
asS'CP001038.txt'
p199
(lp200
S'354565'
p201
asS'CP000134.txt'
p202
(lp203
S'194230'
p204
asS'CP001113.txt'
p205
(lp206
S'4827642'
p207
asS'CU458896.txt'
p208
(lp209
S'5067173'
p210
asS'CP002510.txt'
p211
(lp212
S'139014'
p213
asS'AL590842.txt'
p214
(lp215
S'4653729'
p216
asS'FP885907.txt'
p217
(lp218
S'2163377'
p219
asS'CP001077.txt'
p220
(lp221
S'1091524'
p222
asS'AP003605.txt'
p223
(lp224
S'40341'
p225
asS'CP001757.txt'
p226
(lp227
S'3197'
p228
asS'AM746676.txt'
p229
(lp230
S'13033780'
p231
asS'CP000676.txt'
p232
(lp233
S'184463'
p234
asS'CP002048.txt'
p235
(lp236
S'2405560'
p237
asS'CP002863.txt'
p238
(lp239
S'44755'
p240
asS'AE017282.txt'
p241
(lp242
S'3304562'
p243
asS'AP008955.txt'
p244
(lp245
S'6296437'
p246
asS'CP002735.txt'
p247
(lp248
S'6685843'
p249
asS'AE001827.txt'
p250
(lp251
S'45705'
p252
asS'FN392238.txt'
p253
(lp254
S'35902'
p255
asS'CP002016.txt'
p256
(lp257
S'489137'
p258
asS'CP001294.txt'
p259
(lp260
S'29240'
p261
asS'AM711866.txt'
p262
(lp263
S'69990'
p264
asS'CP000094.txt'
p265
(lp266
S'6438406'
p267
asS'AP003606.txt'
p268
(lp269
S'5585'
p270
asS'AP011117.txt'
p271
(lp272
S'244998'
p273
asS'AP009045.txt'
p274
(lp275
S'49121'
p276
asS'CP000784.txt'
p277
(lp278
S'31209'
p279
asS'FN392235.txt'
p280
(lp281
S'4026287'
p282
asS'AP009153.txt'
p283
(lp284
S'4636965'
p285
asS'CP001715.txt'
p286
(lp287
S'5058519'
p288
asS'CP000713.txt'
p289
(lp290
S'2978977'
p291
asS'AE017194.txt'
p292
(lp293
S'5224284'
p294
asS'CP002666.txt'
p295
(lp296
S'4266345'
p297
asS'CP000656.txt'
p298
(lp299
S'5619608'
p300
asS'CP000248.txt'
p301
(lp302
S'3561585'
p303
asS'CP000907.txt'
p304
(lp305
S'52831'
p306
asS'CP001356.txt'
p307
(lp308
S'9830'
p309
asS'CP000417.txt'
p310
(lp311
S'13414'
p312
asS'CP002599.txt'
p313
(lp314
S'4413617'
p315
asS'CP001626.txt'
p316
(lp317
S'350313'
p318
asS'CP000483.txt'
p319
(lp320
S'202398'
p321
asS'CP001348.txt'
p322
(lp323
S'4068725'
p324
asS'BA000016.txt'
p325
(lp326
S'3031431'
p327
asS'CP001891.txt'
p328
(lp329
S'5458506'
p330
asS'CP002823.txt'
p331
(lp332
S'167270'
p333
asS'CP001090.txt'
p334
(lp335
S'77114'
p336
asS'CP001677.txt'
p337
(lp338
S'1227329'
p339
asS'CP000932.txt'
p340
(lp341
S'1525461'
p342
asS'CP000117.txt'
p343
(lp344
S'6365728'
p345
asS'CP000008.txt'
p346
(lp347
S'2688'
p348
asS'CP000699.txt'
p349
(lp350
S'5382262'
p351
asS'AE007872.txt'
p352
(lp353
S'542869'
p354
asS'AM260480.txt'
p355
(lp356
S'2912491'
p357
asS'AE016825.txt'
p358
(lp359
S'4751081'
p360
asS'FP236826.txt'
p361
(lp362
S'102324'
p363
asS'CP001117.txt'
p364
(lp365
S'396460'
p366
asS'AE017285.txt'
p367
(lp368
S'3570859'
p369
asS'AM412318.txt'
p370
(lp371
S'16345'
p372
asS'AP009493.txt'
p373
(lp374
S'8545930'
p375
asS'AM236084.txt'
p376
(lp377
S'488136'
p378
asS'CP001755.txt'
p379
(lp380
S'21925'
p381
asS'CP000535.txt'
p382
(lp383
S'21612'
p384
asS'CP001506.txt'
p385
(lp386
S'141793'
p387
asS'CP001189.txt'
p388
(lp389
S'3887493'
p390
asS'CP002857.txt'
p391
(lp392
S'2601312'
p393
asS'CP001029.txt'
p394
(lp395
S'5800442'
p396
asS'CP002519.txt'
p397
(lp398
S'4063450'
p399
asS'CP001053.txt'
p400
(lp401
S'3626000'
p402
asS'CP002398.txt'
p403
(lp404
S'160347'
p405
asS'CP002343.txt'
p406
(lp407
S'4024383'
p408
asS'CP002083.txt'
p409
(lp410
S'3638970'
p411
asS'FN434114.txt'
p412
(lp413
S'28260'
p414
asS'CP000740.txt'
p415
(lp416
S'1245409'
p417
asS'CP000434.txt'
p418
(lp419
S'332362'
p420
asS'BA000020.txt'
p421
(lp422
S'408102'
p423
asS'CP000533.txt'
p424
(lp425
S'143748'
p426
asS'CP001965.txt'
p427
(lp428
S'3003657'
p429
asS'AP010946.txt'
p430
(lp431
S'3311396'
p432
asS'CP001298.txt'
p433
(lp434
S'5777909'
p435
asS'CP001071.txt'
p436
(lp437
S'2664103'
p438
asS'CP002575.txt'
p439
(lp440
S'9779'
p441
asS'AF528097.txt'
p442
(lp443
S'74083'
p444
asS'BX936399.txt'
p445
(lp446
S'68526'
p447
asS'CP001704.txt'
p448
(lp449
S'22724'
p450
asS'CP000568.txt'
p451
(lp452
S'3843302'
p453
asS'AP008934.txt'
p454
(lp455
S'2516576'
p456
asS'CP002584.txt'
p457
(lp458
S'6226410'
p459
asS'CP001773.txt'
p460
(lp461
S'9966'
p462
asS'CP001297.txt'
p463
(lp464
S'15220'
p465
asS'FR856859.txt'
p466
(lp467
S'48715'
p468
asS'FP236828.txt'
p469
(lp470
S'4956'
p471
asS'CP001791.txt'
p472
(lp473
S'3592488'
p474
asS'CP001895.txt'
p475
(lp476
S'529677'
p477
asS'FP236827.txt'
p478
(lp479
S'3071'
p480
asS'AL954747.txt'
p481
(lp482
S'2812095'
p483
asS'CP002881.txt'
p484
(lp485
S'4547931'
p486
asS'CP002380.txt'
p487
(lp488
S'190451'
p489
asS'CP001911.txt'
p490
(lp491
S'51489'
p492
asS'CP002553.txt'
p493
(lp494
S'92708'
p495
asS'FN666575.txt'
p496
(lp497
S'3805875'
p498
asS'CP002850.txt'
p499
(lp500
S'2021774'
p501
asS'FM164414.txt'
p502
(lp503
S'29038'
p504
asS'AE010301.txt'
p505
(lp506
S'359373'
p507
asS'CP002855.txt'
p508
(lp509
S'4024'
p510
asS'CP000441.txt'
p511
(lp512
S'2646970'
p513
asS'CP000118.txt'
p514
(lp515
S'37152'
p516
asS'AE007869.txt'
p517
(lp518
S'2841581'
p519
asS'CP001790.txt'
p520
(lp521
S'5063893'
p522
asS'CP000509.txt'
p523
(lp524
S'4985872'
p525
asS'CP001299.txt'
p526
(lp527
S'380208'
p528
asS'CP000092.txt'
p529
(lp530
S'634918'
p531
asS'FP929041.txt'
p532
(lp533
S'1966751'
p534
asS'CP002773.txt'
p535
(lp536
S'5442881'
p537
asS'CP000495.txt'
p538
(lp539
S'228827'
p540
asS'AM743169.txt'
p541
(lp542
S'4851127'
p543
asS'CP001292.txt'
p544
(lp545
S'328636'
p546
asS'AE017180.txt'
p547
(lp548
S'3814140'
p549
asS'CP000414.txt'
p550
(lp551
S'2038397'
p552
asS'CP000662.txt'
p553
(lp554
S'877880'
p555
asS'CP000698.txt'
p556
(lp557
S'5136365'
p558
asS'FN667742.txt'
p559
(lp560
S'4432591'
p561
asS'AM889286.txt'
p562
(lp563
S'16611'
p564
asS'FN543093.txt'
p565
(lp566
S'4384464'
p567
asS'AE001437.txt'
p568
(lp569
S'3940881'
p570
asS'CP002662.txt'
p571
(lp572
S'11124'
p573
asS'CP001816.txt'
p574
(lp575
S'2306352'
p576
asS'AE016879.txt'
p577
(lp578
S'5227294'
p579
asS'CP001989.txt'
p580
(lp581
S'99695'
p582
asS'CP000058.txt'
p583
(lp584
S'5928788'
p585
asS'CP001848.txt'
p586
(lp587
S'6196200'
p588
asS'BA000019.txt'
p589
(lp590
S'6413772'
p591
asS'CP002824.txt'
p592
(lp593
S'5280351'
p594
asS'CP001718.txt'
p595
(lp596
S'37696'
p597
asS'CP000246.txt'
p598
(lp599
S'3256684'
p600
asS'CP001646.txt'
p601
(lp602
S'389780'
p603
asS'CP001001.txt'
p604
(lp605
S'6077834'
p606
asS'CP000629.txt'
p607
(lp608
S'2650914'
p609
asS'AE017195.txt'
p610
(lp611
S'208370'
p612
asS'CU469464.txt'
p613
(lp614
S'601944'
p615
asS'AE015927.txt'
p616
(lp617
S'2799252'
p618
asS'CP000282.txt'
p619
(lp620
S'5057532'
p621
asS'CP002742.txt'
p622
(lp623
S'1690595'
p624
asS'AE017333.txt'
p625
(lp626
S'4222646'
p627
asS'AP011123.txt'
p628
(lp629
S'182941'
p630
asS'CP000701.txt'
p631
(lp632
S'222758'
p633
asS'CP000450.txt'
p634
(lp635
S'2661058'
p636
asS'CP000934.txt'
p637
(lp638
S'4576574'
p639
asS'CP001219.txt'
p640
(lp641
S'2982398'
p642
asS'CP001355.txt'
p643
(lp644
S'12639'
p645
asS'CP001745.txt'
p646
(lp647
S'37011'
p648
asS'CP000150.txt'
p649
(lp650
S'1395070'
p651
asS'BX936400.txt'
p652
(lp653
S'27703'
p654
asS'CP002521.txt'
p655
(lp656
S'5482171'
p657
asS'CP002862.txt'
p658
(lp659
S'66927'
p660
asS'AP012033.txt'
p661
(lp662
S'321745'
p663
asS'FN543504.txt'
p664
(lp665
S'39266'
p666
asS'CP001293.txt'
p667
(lp668
S'197706'
p669
asS'CP001076.txt'
p670
(lp671
S'429112'
p672
asS'AM711865.txt'
p673
(lp674
S'27358'
p675
asS'AP011125.txt'
p676
(lp677
S'3205'
p678
asS'CP002577.txt'
p679
(lp680
S'29705'
p681
asS'CP000761.txt'
p682
(lp683
S'101492'
p684
asS'CP002041.txt'
p685
(lp686
S'775355'
p687
asS'CP000320.txt'
p688
(lp689
S'294830'
p690
asS'FN650141.txt'
p691
(lp692
S'71827'
p693
asS'CP001754.txt'
p694
(lp695
S'23276'
p696
asS'CP000512.txt'
p697
(lp698
S'5352773'
p699
asS'CP002791.txt'
p700
(lp701
S'2606375'
p702
asS'CP002014.txt'
p703
(lp704
S'2593967'
p705
asS'AM849036.txt'
p706
(lp707
S'94792'
p708
asS'CP001312.txt'
p709
(lp710
S'3738959'
p711
asS'CP001778.txt'
p712
(lp713
S'6841558'
p714
asS'CP001910.txt'
p715
(lp716
S'281232'
p717
asS'FN392236.txt'
p718
(lp719
S'2611'
p720
asS'CP000089.txt'
p721
(lp722
S'4501105'
p723
asS'AP008931.txt'
p724
(lp725
S'271578'
p726
asS'BA000004.txt'
p727
(lp728
S'4202353'
p729
asS'CP000653.txt'
p730
(lp731
S'4518713'
p732
asS'CP002454.txt'
p733
(lp734
S'3498531'
p735
asS'AP012204.txt'
p736
(lp737
S'5683124'
p738
asS'CP000635.txt'
p739
(lp740
S'130436'
p741
asS'CP002799.txt'
p742
(lp743
S'1368671'
p744
asS'AF401314.txt'
p745
(lp746
S'14324'
p747
asS'CP000539.txt'
p748
(lp749
S'4448857'
p750
asS'CP000060.txt'
p751
(lp752
S'51712'
p753
asS'AP009152.txt'
p754
(lp755
S'2697541'
p756
asS'CP001720.txt'
p757
(lp758
S'4545625'
p759
asS'CP000386.txt'
p760
(lp761
S'3225749'
p762
asS'CP002451.txt'
p763
(lp764
S'78983'
p765
asS'CP002509.txt'
p766
(lp767
S'187881'
p768
asS'CP002898.txt'
p769
(lp770
S'1877274'
p771
asS'AP003515.txt'
p772
(lp773
S'54311'
p774
asS'CP002822.txt'
p775
(lp776
S'133056'
p777
asS'CP000758.txt'
p778
(lp779
S'2887298'
p780
asS'CP002816.txt'
p781
(lp782
S'2976164'
p783
asS'CP000751.txt'
p784
(lp785
S'182573'
p786
asS'CP002206.txt'
p787
(lp788
S'4024987'
p789
asS'CP002826.txt'
p790
(lp791
S'3595749'
p792
asS'CP000823.txt'
p793
(lp794
S'9295'
p795
asS'AM236081.txt'
p796
(lp797
S'151565'
p798
asS'CP000928.txt'
p799
(lp800
S'233650'
p801
asS'CP001894.txt'
p802
(lp803
S'165694'
p804
asS'AJ938182.txt'
p805
(lp806
S'2742532'
p807
asS'CR555306.txt'
p808
(lp809
S'4296231'
p810
asS'CP000142.txt'
p811
(lp812
S'3665894'
p813
asS'AP003604.txt'
p814
(lp815
S'55415'
p816
asS'CP000075.txt'
p817
(lp818
S'6093699'
p819
asS'DQ232587.txt'
p820
(lp821
S'37101'
p822
asS'CP001512.txt'
p823
(lp824
S'44196'
p825
asS'CP000612.txt'
p826
(lp827
S'3608105'
p828
asS'CP000536.txt'
p829
(lp830
S'9899'
p831
asS'CP001827.txt'
p832
(lp833
S'1413463'
p834
asS'CP000482.txt'
p835
(lp836
S'4008001'
p837
asS'CP002827.txt'
p838
(lp839
S'133058'
p840
asS'AE000513.txt'
p841
(lp842
S'2648639'
p843
asS'CP001985.txt'
p844
(lp845
S'9099'
p846
asS'FP103042.txt'
p847
(lp848
S'5943769'
p849
asS'FP565575.txt'
p850
(lp851
S'2752855'
p852
asS'CR555307.txt'
p853
(lp854
S'207356'
p855
asS'CP001874.txt'
p856
(lp857
S'4189977'
p858
asS'CP000531.txt'
p859
(lp860
S'190173'
p861
asS'CP002468.txt'
p862
(lp863
S'4093600'
p864
asS'CP000065.txt'
p865
(lp866
S'4317'
p867
asS'CP001351.txt'
p868
(lp869
S'458071'
p870
asS'CP002248.txt'
p871
(lp872
S'2823931'
p873
asS'CP000442.txt'
p874
(lp875
S'1281473'
p876
asS'CP002224.txt'
p877
(lp878
S'2776085'
p879
asS'CP002740.txt'
p880
(lp881
S'3671983'
p882
asS'CP001623.txt'
p883
(lp884
S'828925'
p885
asS'CP000560.txt'
p886
(lp887
S'3918590'
p888
asS'CP001676.txt'
p889
(lp890
S'9817'
p891
asS'CP002483.txt'
p892
(lp893
S'188168'
p894
asS'CP002554.txt'
p895
(lp896
S'63791'
p897
asS'AM295250.txt'
p898
(lp899
S'2566425'
p900
asS'CP000818.txt'
p901
(lp902
S'177643'
p903
asS'AE009442.txt'
p904
(lp905
S'2519803'
p906
asS'CP000760.txt'
p907
(lp908
S'170352'
p909
asS'BA000030.txt'
p910
(lp911
S'9025609'
p912
asS'AP010948.txt'
p913
(lp914
S'723780'
p915
asS'AP003017.txt'
p916
(lp917
S'208316'
p918
asS'CP000741.txt'
p919
(lp920
S'219314'
p921
asS'CP002449.txt'
p922
(lp923
S'4637014'
p924
asS'CP002435.txt'
p925
(lp926
S'394055'
p927
asS'FN563149.txt'
p928
(lp929
S'5043171'
p930
asS'CP001024.txt'
p931
(lp932
S'1766'
p933
asS'CP001627.txt'
p934
(lp935
S'294783'
p936
asS'CP001343.txt'
p937
(lp938
S'158476'
p939
asS'CP002783.txt'
p940
(lp941
S'1312481'
p942
asS'CP000458.txt'
p943
(lp944
S'3483903'
p945
asS'FN434113.txt'
p946
(lp947
S'3805574'
p948
asS'CP001619.txt'
p949
(lp950
S'6967791'
p951
asS'BA000028.txt'
p952
(lp953
S'3630529'
p954
asS'CP001753.txt'
p955
(lp956
S'21056'
p957
asS'CP002017.txt'
p958
(lp959
S'3384767'
p960
asS'CP000324.txt'
p961
(lp962
S'41222'
p963
asS'CP002736.txt'
p964
(lp965
S'2892256'
p966
asS'CP001705.txt'
p967
(lp968
S'11264'
p969
asS'CU468133.txt'
p970
(lp971
S'46160'
p972
asS'CP002450.txt'
p973
(lp974
S'119719'
p975
asS'CP000666.txt'
p976
(lp977
S'13874'
p978
asS'CR628338.txt'
p979
(lp980
S'131886'
p981
asS'CP001508.txt'
p982
(lp983
S'134347'
p984
asS'CP000638.txt'
p985
(lp986
S'631776'
p987
asS'FQ311475.txt'
p988
(lp989
S'50408'
p990
asS'CP001291.txt'
p991
(lp992
S'5942653'
p993
asS'FR870271.txt'
p994
(lp995
S'2595889'
p996
asS'CP002820.txt'
p997
(lp998
S'1949173'
p999
asS'AE007871.txt'
p1000
(lp1001
S'214234'
p1002
asS'CP000652.txt'
p1003
(lp1004
S'3479'
p1005
asS'AP006627.txt'
p1006
(lp1007
S'4303872'
p1008
asS'CP000473.txt'
p1009
(lp1010
S'9965641'
p1011
asS'CP000657.txt'
p1012
(lp1013
S'321254'
p1014
asS'CP001006.txt'
p1015
(lp1016
S'36411'
p1017
asS'CP001803.txt'
p1018
(lp1019
S'81411'
p1020
asS'CP002395.txt'
p1021
(lp1022
S'2588222'
p1023
asS'CP000138.txt'
p1024
(lp1025
S'642518'
p1026
asS'CP000631.txt'
p1027
(lp1028
S'388170'
p1029
asS'CP001052.txt'
p1030
(lp1031
S'4467538'
p1032
asS'CP002622.txt'
p1033
(lp1034
S'4689947'
p1035
asS'CP002226.txt'
p1036
(lp1037
S'243646'
p1038
asS'CP000542.txt'
p1039
(lp1040
S'5566750'
p1041
asS'AM420293.txt'
p1042
(lp1043
S'8212806'
p1044
asS'CP002574.txt'
p1045
(lp1046
S'251783'
p1047
asS'CP001700.txt'
p1048
(lp1049
S'10467783'
p1050
asS'AM849034.txt'
p1051
(lp1052
S'3258646'
p1053
asS'CP000321.txt'
p1054
(lp1055
S'188319'
p1056
asS'AE007870.txt'
p1057
(lp1058
S'2075578'
p1059
asS'CP000782.txt'
p1060
(lp1061
S'316165'
p1062
asS'CP001018.txt'
p1063
(lp1064
S'66728'
p1065
asS'AP008957.txt'
p1066
(lp1067
S'6516311'
p1068
asS'CP000383.txt'
p1069
(lp1070
S'4433219'
p1071
asS'CP001774.txt'
p1072
(lp1073
S'8652'
p1074
asS'CP002084.txt'
p1075
(lp1076
S'1686511'
p1077
asS'CP001510.txt'
p1078
(lp1079
S'5511323'
p1080
asS'FN667743.txt'
p1081
(lp1082
S'155328'
p1083
asS'CP002214.txt'
p1084
(lp1085
S'510116'
p1086
asS'CP001879.txt'
p1087
(lp1088
S'285223'
p1089
asS'CP000639.txt'
p1090
(lp1091
S'78731'
p1092
asS'AE015451.txt'
p1093
(lp1094
S'6181864'
p1095
asS'CP001003.txt'
p1096
(lp1097
S'47004'
p1098
asS'CP000151.txt'
p1099
(lp1100
S'3694127'
p1101
asS'CP001622.txt'
p1102
(lp1103
S'4767044'
p1104
asS'BX571964.txt'
p1105
(lp1106
S'8428'
p1107
asS'BA000012.txt'
p1108
(lp1109
S'7036072'
p1110
asS'CP001647.txt'
p1111
(lp1112
S'273137'
p1113
asS'CP000283.txt'
p1114
(lp1115
S'4892718'
p1116
asS'CP001039.txt'
p1117
(lp1118
S'254919'
p1119
asS'CP001045.txt'
p1120
(lp1121
S'1904894'
p1122
asS'CP001112.txt'
p1123
(lp1124
S'3606'
p1125
asS'CP000453.txt'
p1126
(lp1127
S'3275945'
p1128
asS'CP000966.txt'
p1129
(lp1130
S'91097'
p1131
asS'CP002013.txt'
p1132
(lp1133
S'3518941'
p1134
asS'CP000148.txt'
p1135
(lp1136
S'3997421'
p1137
asS'CP001296.txt'
p1138
(lp1139
S'18084'
p1140
asS'CP000685.txt'
p1141
(lp1142
S'6096873'
p1143
asS'CP001096.txt'
p1144
(lp1145
S'5744042'
p1146
asS'CP000717.txt'
p1147
(lp1148
S'4424436'
p1149
asS'CP000232.txt'
p1150
(lp1151
S'2628785'
p1152
asS'AY305378.txt'
p1153
(lp1154
S'452157'
p1155
asS'CP001070.txt'
p1156
(lp1157
S'80935'
p1158
asS'CP001748.txt'
p1159
(lp1160
S'94470'
p1161
asS'CP000532.txt'
p1162
(lp1163
S'171867'
p1164
asS'AE015933.txt'
p1165
(lp1166
S'17262'
p1167
asS'CP001724.txt'
p1168
(lp1169
S'40819'
p1170
asS'CP000348.txt'
p1171
(lp1172
S'3614447'
p1173
asS'CP000319.txt'
p1174
(lp1175
S'4406968'
p1176
asS'AE017335.txt'
p1177
(lp1178
S'94831'
p1179
asS'CP002185.txt'
p1180
(lp1181
S'4900969'
p1182
asS'FN543502.txt'
p1183
(lp1184
S'5346660'
p1185
asS'CP001909.txt'
p1186
(lp1187
S'14861'
p1188
asS'CP002288.txt'
p1189
(lp1190
S'98157'
p1191
asS'CP001229.txt'
p1192
(lp1193
S'1640878'
p1194
asS'CP000091.txt'
p1195
(lp1196
S'2726153'
p1197
asS'CP002481.txt'
p1198
(lp1199
S'475659'
p1200
asS'CP001342.txt'
p1201
(lp1202
S'426859'
p1203
asS'AE016878.txt'
p1204
(lp1205
S'15275'
p1206
asS'CP001747.txt'
p1207
(lp1208
S'181908'
p1209
asS'CP002467.txt'
p1210
(lp1211
S'5095227'
p1212
asS'CP000027.txt'
p1213
(lp1214
S'1469721'
p1215
asS'CP001988.txt'
p1216
(lp1217
S'66986'
p1218
asS'CP001031.txt'
p1219
(lp1220
S'23393'
p1221
asS'CP000783.txt'
p1222
(lp1223
S'4368374'
p1224
asS'CP002213.txt'
p1225
(lp1226
S'5731817'
p1227
asS'CP000147.txt'
p1228
(lp1229
S'100829'
p1230
asS'CP001824.txt'
p1231
(lp1232
S'1252732'
p1233
asS'CP001472.txt'
p1234
(lp1235
S'4127357'
p1236
asS'CP001578.txt'
p1237
(lp1238
S'2117051'
p1239
asS'CP002790.txt'
p1240
(lp1241
S'2502096'
p1242
asS'CP000540.txt'
p1243
(lp1244
S'72690'
p1245
asS'CP002271.txt'
p1246
(lp1247
S'10260757'
p1248
asS'AM849035.txt'
p1249
(lp1250
S'50351'
p1251
asS'CP001893.txt'
p1252
(lp1253
S'167984'
p1254
asS'CP002482.txt'
p1255
(lp1256
S'300293'
p1257
asS'CR543861.txt'
p1258
(lp1259
S'3598622'
p1260
asS'CP000416.txt'
p1261
(lp1262
S'2291221'
p1263
asS'CP000853.txt'
p1264
(lp1265
S'3123559'
p1266
asS'CP000270.txt'
p1267
(lp1268
S'4895837'
p1269
asS'AP010803.txt'
p1270
(lp1271
S'3514823'
p1272
asS'CP001635.txt'
p1273
(lp1274
S'5626354'
p1275
asS'CP000813.txt'
p1276
(lp1277
S'3704466'
p1278
asS'CP002860.txt'
p1279
(lp1280
S'107000'
p1281
asS'CU633750.txt'
p1282
(lp1283
S'2502412'
p1284
asS'CP001124.txt'
p1285
(lp1286
S'4615151'
p1287
asS'CP001624.txt'
p1288
(lp1289
S'660974'
p1290
asS'CP002159.txt'
p1291
(lp1292
S'3162472'
p1293
asS'CP001157.txt'
p1294
(lp1295
S'5365319'
p1296
asS'CP000785.txt'
p1297
(lp1298
S'131197'
p1299
asS'CP000451.txt'
p1300
(lp1301
S'65133'
p1302
asS'CP000975.txt'
p1303
(lp1304
S'2287146'
p1305
asS'FP103044.txt'
p1306
(lp1307
S'38580'
p1308
asS'CP000677.txt'
p1309
(lp1310
S'487269'
p1311
asS'CP001116.txt'
p1312
(lp1313
S'314318'
p1314
asS'CP002866.txt'
p1315
(lp1316
S'37388'
p1317
asS'CP000133.txt'
p1318
(lp1319
S'4381609'
p1320
asS'CP000817.txt'
p1321
(lp1322
S'4639822'
p1323
asS'CP002540.txt'
p1324
(lp1325
S'97189'
p1326
asS'CP000382.txt'
p1327
(lp1328
S'2547721'
p1329
asS'AP009049.txt'
p1330
(lp1331
S'3896122'
p1332
asS'CP000120.txt'
p1333
(lp1334
S'35763'
p1335
asS'CP001074.txt'
p1336
(lp1337
S'4513325'
p1338
asS'CP000658.txt'
p1339
(lp1340
S'25310'
p1341
asS'CP000680.txt'
p1342
(lp1343
S'5072808'
p1344
asS'CP000415.txt'
p1345
(lp1346
S'37368'
p1347
asS'FP929043.txt'
p1348
(lp1349
S'3698420'
p1350
asS'CP000452.txt'
p1351
(lp1352
S'55636'
p1353
asS'CP001828.txt'
p1354
(lp1355
S'3516335'
p1356
asS'CP001111.txt'
p1357
(lp1358
S'4573970'
p1359
asS'AP005645.txt'
p1360
(lp1361
S'94288'
p1362
asS'AP009050.txt'
p1363
(lp1364
S'59183'
p1365
asS'CP001503.txt'
p1366
(lp1367
S'3906508'
p1368
asS'AP003602.txt'
p1369
(lp1370
S'186615'
p1371
asS'CP000614.txt'
p1372
(lp1373
S'3652815'
p1374
asS'AP010906.txt'
p1375
(lp1376
S'8868'
p1377
asS'CP002207.txt'
p1378
(lp1379
S'4168267'
p1380
asS'CP002457.txt'
p1381
(lp1382
S'4840252'
p1383
asS'CP001987.txt'
p1384
(lp1385
S'53866'
p1386
asS'FP929044.txt'
p1387
(lp1388
S'2943414'
p1389
asS'FP929047.txt'
p1390
(lp1391
S'3608023'
p1392
asS'AP012032.txt'
p1393
(lp1394
S'4555537'
p1395
asS'AM236085.txt'
p1396
(lp1397
S'684203'
p1398
asS'CP000673.txt'
p1399
(lp1400
S'3964619'
p1401
asS'CP001017.txt'
p1402
(lp1403
S'181737'
p1404
asS'CP000650.txt'
p1405
(lp1406
S'88583'
p1407
asS'CP000869.txt'
p1408
(lp1409
S'2472929'
p1410
asS'CP002869.txt'
p1411
(lp1412
S'8663822'
p1413
asS'CP000822.txt'
p1414
(lp1415
S'4720463'
p1416
asS'CP000950.txt'
p1417
(lp1418
S'4689442'
p1419
asS'CP000433.txt'
p1420
(lp1421
S'442537'
p1422
asS'CP001513.txt'
p1423
(lp1424
S'37859'
p1425
asS'CP001030.txt'
p1426
(lp1427
S'25165'
p1428
asS'FN822744.txt'
p1429
(lp1430
S'1954081'
p1431
asS'CP001138.txt'
p1432
(lp1433
S'4798661'
p1434
asS'CP000903.txt'
p1435
(lp1436
S'5262776'
p1437
asS'CP000391.txt'
p1438
(lp1439
S'131248'
p1440
asS'CP001009.txt'
p1441
(lp1442
S'21023'
p1443
asS'AP008932.txt'
p1444
(lp1445
S'104015'
p1446
asS'BX908798.txt'
p1447
(lp1448
S'2414466'
p1449
asS'CP002439.txt'
p1450
(lp1451
S'2617382'
p1452
asS'CP000824.txt'
p1453
(lp1454
S'5602'
p1455
asS'FR856860.txt'
p1456
(lp1457
S'192104'
p1458
asS'CP002287.txt'
p1459
(lp1460
S'7013096'
p1461
asS'CP002876.txt'
p1462
(lp1463
S'3783445'
p1464
asS'CP000090.txt'
p1465
(lp1466
S'3806534'
p1467
asS'AE003851.txt'
p1468
(lp1469
S'51159'
p1470
asS'FR687359.txt'
p1471
(lp1472
S'2755310'
p1473
asS'CP000316.txt'
p1474
(lp1475
S'5200265'
p1476
asS'CP002397.txt'
p1477
(lp1478
S'244261'
p1479
asS'CP001867.txt'
p1480
(lp1481
S'5322498'
p1482
asS'AM236080.txt'
p1483
(lp1484
S'5057143'
p1485
asS'AP006718.txt'
p1486
(lp1487
S'2367'
p1488
asS'CU458745.txt'
p1489
(lp1490
S'23320'
p1491
asS'CP000534.txt'
p1492
(lp1493
S'58809'
p1494
asS'CP001004.txt'
p1495
(lp1496
S'42986'
p1497
asS'CU234118.txt'
p1498
(lp1499
S'7456588'
p1500
asS'CP001008.txt'
p1501
(lp1502
S'22115'
p1503
asS'AM920689.txt'
p1504
(lp1505
S'5079003'
p1506
asS'AL117211.txt'
p1507
(lp1508
S'96211'
p1509
asS'AP006628.txt'
p1510
(lp1511
S'853093'
p1512
asS'AM181176.txt'
p1513
(lp1514
S'6722540'
p1515
asS'CP001725.txt'
p1516
(lp1517
S'4552'
p1518
asS'CP002249.txt'
p1519
(lp1520
S'2148290'
p1521
asS'CP002056.txt'
p1522
(lp1523
S'3059872'
p1524
asS'CP001511.txt'
p1525
(lp1526
S'1261461'
p1527
asS'CP000440.txt'
p1528
(lp1529
S'3556546'
p1530
asS'CP001701.txt'
p1531
(lp1532
S'4669814'
p1533
asS'CP000318.txt'
p1534
(lp1535
S'338008'
p1536
asS'FN666577.txt'
p1537
(lp1538
S'71488'
p1539
asS'CU633749.txt'
p1540
(lp1541
S'3416912'
p1542
asS'CP000389.txt'
p1543
(lp1544
S'343932'
p1545
asS'CP000029.txt'
p1546
(lp1547
S'2616531'
p1548
asS'CP002305.txt'
p1549
(lp1550
S'4059654'
p1551
asS'CP000476.txt'
p1552
(lp1553
S'300726'
p1554
asS'CP001615.txt'
p1555
(lp1556
S'2999896'
p1557
asS'CP001054.txt'
p1558
(lp1559
S'121123'
p1560
asS'AP010904.txt'
p1561
(lp1562
S'5248050'
p1563
asS'CP001716.txt'
p1564
(lp1565
S'167596'
p1566
asS'CP001115.txt'
p1567
(lp1568
S'324712'
p1569
asS'AE015931.txt'
p1570
(lp1571
S'4680'
p1572
asS'CP001027.txt'
p1573
(lp1574
S'1127948'
p1575
asS'CP000116.txt'
p1576
(lp1577
S'2909810'
p1578
asS'CP001771.txt'
p1579
(lp1580
S'146937'
p1581
asS'CP000715.txt'
p1582
(lp1583
S'2118'
p1584
asS'CP002852.txt'
p1585
(lp1586
S'32284'
p1587
asS'CP001505.txt'
p1588
(lp1589
S'133592'
p1590
asS'CP000491.txt'
p1591
(lp1592
S'653816'
p1593
asS'AE010300.txt'
p1594
(lp1595
S'4338763'
p1596
asS'CP001758.txt'
p1597
(lp1598
S'2002722'
p1599
asS'CP000390.txt'
p1600
(lp1601
S'4412447'
p1602
asS'CP000664.txt'
p1603
(lp1604
S'121963'
p1605
asS'CP002484.txt'
p1606
(lp1607
S'115494'
p1608
asS'CP001802.txt'
p1609
(lp1610
S'5208603'
p1611
asS'AP006717.txt'
p1612
(lp1613
S'2301'
p1614
asS'CP001878.txt'
p1615
(lp1616
S'3858998'
p1617
asS'AE003849.txt'
p1618
(lp1619
S'2679307'
p1620
asS'AP010905.txt'
p1621
(lp1622
S'58705'
p1623
asS'AE004091.txt'
p1624
(lp1625
S'6264405'
p1626
asS'CP000724.txt'
p1627
(lp1628
S'4929567'
p1629
asS'CP000136.txt'
p1630
(lp1631
S'250949'
p1632
asS'CU633751.txt'
p1633
(lp1634
S'557201'
p1635
asS'CP001026.txt'
p1636
(lp1637
S'2769415'
p1638
asS'CP000088.txt'
p1639
(lp1640
S'3642250'
p1641
asS'CP000739.txt'
p1642
(lp1643
S'1570952'
p1644
asS'FP236842.txt'
p1645
(lp1646
S'4026323'
p1647
asS'AE015934.txt'
p1648
(lp1649
S'24366'
p1650
asS'CP001353.txt'
p1651
(lp1652
S'37543'
p1653
asS'CP001010.txt'
p1654
(lp1655
S'1560470'
p1656
asS'AM412317.txt'
p1657
(lp1658
S'3886917'
p1659
asS'CP000063.txt'
p1660
(lp1661
S'4010'
p1662
asS'CP002828.txt'
p1663
(lp1664
S'167270'
p1665
asS'CP000459.txt'
p1666
(lp1667
S'2998665'
p1668
asS'CP000939.txt'
p1669
(lp1670
S'3958234'
p1671
asS'AE014300.txt'
p1672
(lp1673
S'161614'
p1674
asS'FR687360.txt'
p1675
(lp1676
S'822305'
p1677
asS'CP000093.txt'
p1678
(lp1679
S'87689'
p1680
asS'FR856861.txt'
p1681
(lp1682
S'1161603'
p1683
asS'CP001756.txt'
p1684
(lp1685
S'29617'
p1686
asS'FP236843.txt'
p1687
(lp1688
S'5100168'
p1689
asS'AL109969.txt'
p1690
(lp1691
S'9613'
p1692
asS'CP002537.txt'
p1693
(lp1694
S'314519'
p1695
asS'AE015929.txt'
p1696
(lp1697
S'2499280'
p1698
asS'CP000752.txt'
p1699
(lp1700
S'12918'
p1701
asS'CP000144.txt'
p1702
(lp1703
S'943017'
p1704
asS'CP001630.txt'
p1705
(lp1706
S'8248145'
p1707
asS'FN543505.txt'
p1708
(lp1709
S'3911'
p1710
asS'CP000006.txt'
p1711
(lp1712
S'14548'
p1713
asS'CP000931.txt'
p1714
(lp1715
S'5226918'
p1716
asS'CP002298.txt'
p1717
(lp1718
S'202306'
p1719
asS'CP001625.txt'
p1720
(lp1721
S'516089'
p1722
asS'CP002244.txt'
p1723
(lp1724
S'138928'
p1725
asS'CP000649.txt'
p1726
(lp1727
S'107577'
p1728
asS'CP002394.txt'
p1729
(lp1730
S'4681673'
p1731
asS'FN392237.txt'
p1732
(lp1733
S'3071'
p1734
asS'CP002585.txt'
p1735
(lp1736
S'6843249'
p1737
asS'FP885897.txt'
p1738
(lp1739
S'3417387'
p1740
asS'CP000674.txt'
p1741
(lp1742
S'59183'
p1743
asS'AM406670.txt'
p1744
(lp1745
S'4376041'
p1746
asS'CP002851.txt'
p1747
(lp1748
S'32480'
p1749
asS'CP001746.txt'
p1750
(lp1751
S'5196055'
p1752
asS'CP001280.txt'
p1753
(lp1754
S'4305431'
p1755
asS'CP000457.txt'
p1756
(lp1757
S'96489'
p1758
asS'AE008923.txt'
p1759
(lp1760
S'5175555'
p1761
asS'CP000511.txt'
p1762
(lp1763
S'6491866'
p1764
asS'CP001823.txt'
p1765
(lp1766
S'2741034'
p1767
asS'FQ311875.txt'
p1768
(lp1769
S'3859258'
p1770
asS'CP001278.txt'
p1771
(lp1772
S'59033'
p1773
asS'CP000965.txt'
p1774
(lp1775
S'187923'
p1776
asS'CP002569.txt'
p1777
(lp1778
S'69599'
p1779
asS'CP001281.txt'
p1780
(lp1781
S'4496213'
p1782
asS'CP002102.txt'
p1783
(lp1784
S'3445264'
p1785
asS'AM889285.txt'
p1786
(lp1787
S'3944164'
p1788
asS'CP001618.txt'
p1789
(lp1790
S'4669184'
p1791
asS'CP001983.txt'
p1792
(lp1793
S'5097130'
p1794
asS'AP011116.txt'
p1795
(lp1796
S'558193'
p1797
asS'CP002661.txt'
p1798
(lp1799
S'191997'
p1800
asS'CP000349.txt'
p1801
(lp1802
S'317337'
p1803
asS'CP002225.txt'
p1804
(lp1805
S'268676'
p1806
asS'CP000269.txt'
p1807
(lp1808
S'4110252'
p1809
asS'FP929003.txt'
p1810
(lp1811
S'4317084'
p1812
asS'CP000871.txt'
p1813
(lp1814
S'167423'
p1815
asS'CR628336.txt'
p1816
(lp1817
S'3503611'
p1818
asS'CP002252.txt'
p1819
(lp1820
S'2862392'
p1821
asS'CP002877.txt'
p1822
(lp1823
S'3872937'
p1824
asS'CP000964.txt'
p1825
(lp1826
S'5641240'
p1827
asS'AP011121.txt'
p1828
(lp1829
S'2907496'
p1830
asS'CP001683.txt'
p1831
(lp1832
S'4308350'
p1833
asS'AE017263.txt'
p1834
(lp1835
S'793225'
p1836
asS'CP000507.txt'
p1837
(lp1838
S'4306143'
p1839
asS'CP001028.txt'
p1840
(lp1841
S'301593'
p1842
asS'AP010804.txt'
p1843
(lp1844
S'681893'
p1845
asS'CP002475.txt'
p1846
(lp1847
S'7337498'
p1848
asS'CP000394.txt'
p1849
(lp1850
S'2708356'
p1851
asS'CP001875.txt'
p1852
(lp1853
S'4703374'
p1854
asS'AE016823.txt'
p1855
(lp1856
S'4277186'
p1857
asS'AP008936.txt'
p1858
(lp1859
S'22871'
p1860
asS'AP006840.txt'
p1861
(lp1862
S'3566136'
p1863
asS'CP000777.txt'
p1864
(lp1865
S'3603978'
p1866
asS'AP009180.txt'
p1867
(lp1868
S'159663'
p1869
asS'CP001776.txt'
p1870
(lp1871
S'7309'
p1872
asS'CT573326.txt'
p1873
(lp1874
S'5888781'
p1875
asS'CP000113.txt'
p1876
(lp1877
S'9139764'
p1878
asS'AE015932.txt'
p1879
(lp1880
S'8008'
p1881
asS'CP002189.txt'
p1882
(lp1883
S'722594'
p1884
asS'AP010806.txt'
p1885
(lp1886
S'31777'
p1887
asS'CP000145.txt'
p1888
(lp1889
S'114179'
p1890
asS'CP002506.txt'
p1891
(lp1892
S'616550'
p1893
asS'AM942444.txt'
p1894
(lp1895
S'2369220'
p1896
asS'FN543503.txt'
p1897
(lp1898
S'54450'
p1899
asS'CP001821.txt'
p1900
(lp1901
S'3742777'
p1902
asS'CP002552.txt'
p1903
(lp1904
S'3180527'
p1905
asS'BX950851.txt'
p1906
(lp1907
S'5064020'
p1908
asS'AM412059.txt'
p1909
(lp1910
S'4340117'
p1911
asS'AP008933.txt'
p1912
(lp1913
S'3638'
p1914
asS'CP001601.txt'
p1915
(lp1916
S'2790190'
p1917
asS'CP001137.txt'
p1918
(lp1919
S'37979'
p1920
asS'CP000456.txt'
p1921
(lp1922
S'115508'
p1923
asS'DQ489736.txt'
p1924
(lp1925
S'1796285'
p1926
asS'CP000443.txt'
p1927
(lp1928
S'43582'
p1929
asS'CP002038.txt'
p1930
(lp1931
S'4922803'
p1932
asS'CP001674.txt'
p1933
(lp1934
S'2995512'
p1935
asS'CP000353.txt'
p1936
(lp1937
S'2580085'
p1938
asS'CP002364.txt'
p1939
(lp1940
S'3851870'
p1941
asS'FP565809.txt'
p1942
(lp1943
S'2715462'
p1944
asS'CP000763.txt'
p1945
(lp1946
S'57139'
p1947
asS'CP000454.txt'
p1948
(lp1949
S'4698946'
p1950
asS'AE008925.txt'
p1951
(lp1952
S'64921'
p1953
asS'CP000480.txt'
p1954
(lp1955
S'6988210'
p1956
asS'CP000616.txt'
p1957
(lp1958
S'1241008'
p1959
asS'FN667741.txt'
p1960
(lp1961
S'4225499'
p1962
asS'AE017334.txt'
p1963
(lp1964
S'5227420'
p1965
asS'CP001313.txt'
p1966
(lp1967
S'132963'
p1968
asS'CP000061.txt'
p1969
(lp1970
S'706570'
p1971
asS'CP001131.txt'
p1972
(lp1973
S'5061633'
p1974
asS'CP000827.txt'
p1975
(lp1976
S'46805'
p1977
asS'CP001825.txt'
p1978
(lp1979
S'2026948'
p1980
asS'CP001777.txt'
p1981
(lp1982
S'6073'
p1983
asS'CP001815.txt'
p1984
(lp1985
S'28205'
p1986
asS'CP000714.txt'
p1987
(lp1988
S'13957'
p1989
asS'AP010807.txt'
p1990
(lp1991
S'5399'
p1992
asS'CP001736.txt'
p1993
(lp1994
S'7579489'
p1995
asS'CP001666.txt'
p1996
(lp1997
S'4630066'
p1998
asS'CP000615.txt'
p1999
(lp2000
S'2411760'
p2001
asS'CP001040.txt'
p2002
(lp2003
S'123029'
p2004
asS'CP002432.txt'
p2005
(lp2006
S'2928378'
p2007
asS'CP001919.txt'
p2008
(lp2009
S'199563'
p2010
asS'CP001775.txt'
p2011
(lp2012
S'7684'
p2013
asS'CP002109.txt'
p2014
(lp2015
S'4662872'
p2016
asS'CP002476.txt'
p2017
(lp2018
S'188553'
p2019
asS'CP001645.txt'
p2020
(lp2021
S'1323322'
p2022
asS'CP001220.txt'
p2023
(lp2024
S'5373644'
p2025
asS'CP000632.txt'
p2026
(lp2027
S'44421'
p2028
asS'CP000062.txt'
p2029
(lp2030
S'3973'
p2031
asS'CP000712.txt'
p2032
(lp2033
S'5959965'
p2034
asS'CP000885.txt'
p2035
(lp2036
S'4847595'
p2037
asS'CP001032.txt'
p2038
(lp2039
S'5957606'
p2040
asS'CP001514.txt'
p2041
(lp2042
S'24944'
p2043
asS'CP000522.txt'
p2044
(lp2045
S'13409'
p2046
asS'CP002727.txt'
p2047
(lp2048
S'4920770'
p2049
asS'CP000874.txt'
p2050
(lp2051
S'2430034'
p2052
asS'CP000613.txt'
p2053
(lp2054
S'4355544'
p2055
asS'CP001277.txt'
p2056
(lp2057
S'2110332'
p2058
asS'CP001005.txt'
p2059
(lp2060
S'37744'
p2061
asS'CP000121.txt'
p2062
(lp2063
S'300759'
p2064
asS'AM263198.txt'
p2065
(lp2066
S'2814131'
p2067
asS'FN543096.txt'
p2068
(lp2069
S'53843'
p2070
asS'CP001507.txt'
p2071
(lp2072
S'141068'
p2073
asS'CP002299.txt'
p2074
(lp2075
S'8815782'
p2076
asS'CP001025.txt'
p2077
(lp2078
S'3443584'
p2079
asS'CP000137.txt'
p2080
(lp2081
S'505335'
p2082
asS'CP000543.txt'
p2083
(lp2084
S'31195'
p2085
asS'CP002546.txt'
p2086
(lp2087
S'6006603'
p2088
asS'AP006620.txt'
p2089
(lp2090
S'87094'
p2091
asS'FP929037.txt'
p2092
(lp2093
S'3769776'
p2094
asS'FR687361.txt'
p2095
(lp2096
S'172526'
p2097
asS'AP005225.txt'
p2098
(lp2099
S'23744'
p2100
asS'CP002477.txt'
p2101
(lp2102
S'130056'
p2103
asS'CP002040.txt'
p2104
(lp2105
S'5767959'
p2106
asS'CP000475.txt'
p2107
(lp2108
S'328238'
p2109
asS'CP001912.txt'
p2110
(lp2111
S'6881'
p2112
asS'CP001068.txt'
p2113
(lp2114
S'3942558'
p2115
asS'CP000929.txt'
p2116
(lp2117
S'177879'
p2118
asS'CP002810.txt'
p2119
(lp2120
S'3307741'
p2121
asS'CP000637.txt'
p2122
(lp2123
S'258825'
p2124
asS'AE016822.txt'
p2125
(lp2126
S'2584159'
p2127
asS'CP000654.txt'
p2128
(lp2129
S'157750'
p2130
asS'AE015935.txt'
p2131
(lp2132
S'6586'
p2133
asS'CP002658.txt'
p2134
(lp2135
S'75489'
p2136
asS'CP001016.txt'
p2137
(lp2138
S'4170154'
p2139
asS'CP002015.txt'
p2140
(lp2141
S'1282817'
p2142
asS'CP001984.txt'
p2143
(lp2144
S'5429'
p2145
asS'AE015930.txt'
p2146
(lp2147
S'4440'
p2148
asS'CP002381.txt'
p2149
(lp2150
S'94457'
p2151
asS'CU207211.txt'
p2152
(lp2153
S'3424308'
p2154
asS'AM260479.txt'
p2155
(lp2156
S'4052033'
p2157
asS'CP000905.txt'
p2158
(lp2159
S'75108'
p2160
asS'CP001907.txt'
p2161
(lp2162
S'5486831'
p2163
asS'CP002060.txt'
p2164
(lp2165
S'109571'
p2166
asS'CP002879.txt'
p2167
(lp2168
S'1499176'
p2169
asS'AE016855.txt'
p2170
(lp2171
S'73662'
p2172
asS'CP000681.txt'
p2173
(lp2174
S'4659221'
p2175
asS'CP002290.txt'
p2176
(lp2177
S'5731542'
p2178
asS'CU468130.txt'
p2179
(lp2180
S'35495'
p2181
asS'CP000884.txt'
p2182
(lp2183
S'6767515'
p2184
asS'CP000906.txt'
p2185
(lp2186
S'64978'
p2187
asS'CP001837.txt'
p2188
(lp2189
S'2658367'
p2190
asS'CP001717.txt'
p2191
(lp2192
S'42326'
p2193
asS'CP000461.txt'
p2194
(lp2195
S'164858'
p2196
asS'AP009384.txt'
p2197
(lp2198
S'5369773'
p2199
asS'CP001042.txt'
p2200
(lp2201
S'26420'
p2202
asS'CP000769.txt'
p2203
(lp2204
S'5277991'
p2205
asS'CP002000.txt'
p2206
(lp2207
S'10236716'
p2208
asS'CP002856.txt'
p2209
(lp2210
S'2751'
p2211
asS'CP002784.txt'
p2212
(lp2213
S'256270'
p2214
asS'AE016854.txt'
p2215
(lp2216
S'67474'
p2217
asS'CP002080.txt'
p2218
(lp2219
S'4152544'
p2220
asS'CP002861.txt'
p2221
(lp2222
S'93528'
p2223
asS'AE008922.txt'
p2224
(lp2225
S'5076189'
p2226
asS'CP000636.txt'
p2227
(lp2228
S'211621'
p2229
asS'AP011115.txt'
p2230
(lp2231
S'7913451'
p2232
asS'CP001658.txt'
p2233
(lp2234
S'4398251'
p2235
asS'CP000821.txt'
p2236
(lp2237
S'5517675'
p2238
asS'AM235768.txt'
p2239
(lp2240
S'425095'
p2241
asS'AP010950.txt'
p2242
(lp2243
S'628838'
p2244
asS'CP000541.txt'
p2245
(lp2246
S'63610'
p2247
asS'AE009443.txt'
p2248
(lp2249
S'1347'
p2250
asS'CP000661.txt'
p2251
(lp2252
S'3217727'
p2253
asS'CP002880.txt'
p2254
(lp2255
S'424141'
p2256
asS'AM889287.txt'
p2257
(lp2258
S'38819'
p2259
asS'CP001986.txt'
p2260
(lp2261
S'26588'
p2262
asS'CP002039.txt'
p2263
(lp2264
S'5513888'
p2265
asS'CP000967.txt'
p2266
(lp2267
S'5240076'
p2268
asS'CP001579.txt'
p2269
(lp2270
S'1220320'
p2271
asS'CP000779.txt'
p2272
(lp2273
S'74118'
p2274
asS'DQ489740.txt'
p2275
(lp2276
S'38714'
p2277
asS'CP000651.txt'
p2278
(lp2279
S'4260'
p2280
asS'CP001075.txt'
p2281
(lp2282
S'414091'
p2283
asS'CP001089.txt'
p2284
(lp2285
S'3917762'
p2286
asS'CP000762.txt'
p2287
(lp2288
S'93590'
p2289
asS'AP008229.txt'
p2290
(lp2291
S'4940218'
p2292
asS'AE017336.txt'
p2293
(lp2294
S'181678'
p2295
asS'CP002781.txt'
p2296
(lp2297
S'3820345'
p2298
asS'CP000106.txt'
p2299
(lp2300
S'14160'
p2301
asS'FM211192.txt'
p2302
(lp2303
S'3268072'
p2304
asS'CP002865.txt'
p2305
(lp2306
S'1989866'
p2307
asS'CP000154.txt'
p2308
(lp2309
S'5394885'
p2310
asS'CP001809.txt'
p2311
(lp2312
S'2335114'
p2313
asS'CP000152.txt'
p2314
(lp2315
S'3587083'
p2316
asS'BA000040.txt'
p2317
(lp2318
S'9105829'
p2319
asS'CP000474.txt'
p2320
(lp2321
S'4597687'
p2322
asS'CP001504.txt'
p2323
(lp2324
S'2827334'
p2325
asS'CP000272.txt'
p2326
(lp2327
S'1471780'
p2328
asS'AP005226.txt'
p2329
(lp2330
S'48673'
p2331
asS'CP000870.txt'
p2332
(lp2333
S'919807'
p2334
asS'CP002576.txt'
p2335
(lp2336
S'14111'
p2337
asS'CP001822.txt'
p2338
(lp2339
S'88605'
p2340
asS'CP002798.txt'
p2341
(lp2342
S'3080819'
p2343
asS'CP001114.txt'
p2344
(lp2345
S'2819843'
p2346
asS'CP000149.txt'
p2347
(lp2348
S'13763'
p2349
asS'CP001770.txt'
p2350
(lp2351
S'189453'
p2352
asS'FP236829.txt'
p2353
(lp2354
S'35910'
p2355
asS'CP002160.txt'
p2356
(lp2357
S'5262223'
p2358
asS'CP002600.txt'
p2359
(lp2360
S'3700834'
p2361
asS'CP000494.txt'
p2362
(lp2363
S'8264688'
p2364
asS'AP010918.txt'
p2365
(lp2366
S'4371712'
p2367
asS'CP000478.txt'
p2368
(lp2369
S'4990252'
p2370
asS'CP000759.txt'
p2371
(lp2372
S'1895912'
p2373
asS'CP000523.txt'
p2374
(lp2375
S'11303'
p2376
asS'CP001392.txt'
p2377
(lp2378
S'3796574'
p2379
asS'CP000655.txt'
p2380
(lp2381
S'2159491'
p2382
asS'CP001087.txt'
p2383
(lp2384
S'5589074'
p2385
asS'CP002539.txt'
p2386
(lp2387
S'132271'
p2388
asS'CP002399.txt'
p2389
(lp2390
S'6962534'
p2391
asS'CP000628.txt'
p2392
(lp2393
S'4005131'
p2394
asS'CP000064.txt'
p2395
(lp2396
S'5105'
p2397
asS'CP000927.txt'
p2398
(lp2399
S'5477873'
p2400
asS'CP001336.txt'
p2401
(lp2402
S'5279135'
p2403
asS'CP001088.txt'
p2404
(lp2405
S'68710'
p2406
asS'CP000620.txt'
p2407
(lp2408
S'107232'
p2409
asS'CP002660.txt'
p2410
(lp2411
S'3942463'
p2412
asS'CP001675.txt'
p2413
(lp2414
S'76681'
p2415
asS'AM422018.txt'
p2416
(lp2417
S'879960'
p2418
asS'AP011118.txt'
p2419
(lp2420
S'111161'
p2421
asS'FN597644.txt'
p2422
(lp2423
S'3980200'
p2424
asS'CP000537.txt'
p2425
(lp2426
S'6460'
p2427
asS'AL117189.txt'
p2428
(lp2429
S'70306'
p2430
asS'AP006619.txt'
p2431
(lp2432
S'184027'
p2433
asS'CP002780.txt'
p2434
(lp2435
S'3969015'
p2436
asS'CP002297.txt'
p2437
(lp2438
S'3532053'
p2439
asS'CP001080.txt'
p2440
(lp2441
S'1838443'
p2442
asS'CU468132.txt'
p2443
(lp2444
S'44695'
p2445
asS'CP001814.txt'
p2446
(lp2447
S'10341315'
p2448
asS'CP000354.txt'
p2449
(lp2450
S'233721'
p2451
asS'AM236086.txt'
p2452
(lp2453
S'870022'
p2454
asS'CP000448.txt'
p2455
(lp2456
S'2936196'
p2457
asS'FP565176.txt'
p2458
(lp2459
S'3768696'
p2460
asS'CP001723.txt'
p2461
(lp2462
S'53381'
p2463
asS'CP002059.txt'
p2464
(lp2465
S'5354701'
p2466
asS'CP000721.txt'
p2467
(lp2468
S'6000633'
p2469
asS'CP000085.txt'
p2470
(lp2471
S'2914772'
p2472
asS'CP002819.txt'
p2473
(lp2474
S'3481092'
p2475
asS'AE017286.txt'
p2476
(lp2477
S'202302'
p2478
asS'CP000630.txt'
p2479
(lp2480
S'184669'
p2481
asS'CP002800.txt'
p2482
(lp2483
S'123734'
p2484
asS'CR931997.txt'
p2485
(lp2486
S'2462500'
p2487
asS'CP001699.txt'
p2488
(lp2489
S'9127348'
p2490
asS'CP000744.txt'
p2491
(lp2492
S'6588340'
p2493
asS'CP002620.txt'
p2494
(lp2495
S'5434354'
p2496
asS'AP006719.txt'
p2497
(lp2498
S'8181'
p2499
asS'CP000781.txt'
p2500
(lp2501
S'5308935'
p2502
asS'FN543095.txt'
p2503
(lp2504
S'22449'
p2505
asS'CP002859.txt'
p2506
(lp2507
S'6568740'
p2508
asS'CP001620.txt'
p2509
(lp2510
S'2446805'
p2511
asS'CP000521.txt'
p2512
(lp2513
S'3976748'
p2514
asS'CP002379.txt'
p2515
(lp2516
S'4250415'
p2517
asS'CP001908.txt'
p2518
(lp2519
S'127886'
p2520
asS'CP002085.txt'
p2521
(lp2522
S'3655732'
p2523
asS'CP000826.txt'
p2524
(lp2525
S'5448854'
p2526
asS'CP002345.txt'
p2527
(lp2528
S'3685505'
p2529
asS'CP002438.txt'
p2530
(lp2531
S'116878'
p2532
asS'CP001644.txt'
p2533
(lp2534
S'3647725'
p2535
asS'CP002568.txt'
p2536
(lp2537
S'4649366'
p2538
asS'AP011177.txt'
p2539
(lp2540
S'4962104'
p2541
asS'CP001772.txt'
p2542
(lp2543
S'36435'
p2544
asS'AP010949.txt'
p2545
(lp2546
S'681724'
p2547
asS'CP001918.txt'
p2548
(lp2549
S'5314582'
p2550
asS'CP002741.txt'
p2551
(lp2552
S'1616210'
p2553
asS'CP000103.txt'
p2554
(lp2555
S'3184244'
p2556
asS'CP000958.txt'
p2557
(lp2558
S'3532884'
p2559
asS'CP000896.txt'
p2560
(lp2561
S'1496993'
p2562
asS'AP011127.txt'
p2563
(lp2564
S'1816'
p2565
asS'CP000555.txt'
p2566
(lp2567
S'4044196'
p2568
asS'CP002505.txt'
p2569
(lp2570
S'4864218'
p2571
asS'CP002770.txt'
p2572
(lp2573
S'3601387'
p2574
asS'CP002602.txt'
p2575
(lp2576
S'129400'
p2577
asS'CP000634.txt'
p2578
(lp2579
S'1283188'
p2580
asS'CP001352.txt'
p2581
(lp2582
S'40464'
p2583
asS'AF074611.txt'
p2584
(lp2585
S'100991'
p2586
asS'CP001672.txt'
p2587
(lp2588
S'2547571'
p2589
asS'CP000418.txt'
p2590
(lp2591
S'35596'
p2592
asS'CU468128.txt'
p2593
(lp2594
S'9300'
p2595
asS'AP010952.txt'
p2596
(lp2597
S'261597'
p2598
asS'CP000028.txt'
p2599
(lp2600
S'27311'
p2601
asS'CP000489.txt'
p2602
(lp2603
S'2852283'
p2604
asS'FN666576.txt'
p2605
(lp2606
S'28244'
p2607
asS'AP009351.txt'
p2608
(lp2609
S'2878898'
p2610
asS'CP001829.txt'
p2611
(lp2612
S'2328209'
p2613
asS'AE016877.txt'
p2614
(lp2615
S'5411810'
p2616
asS'AE003850.txt'
p2617
(lp2618
S'1287'
p2619
asS'CP002416.txt'
p2620
(lp2621
S'3561620'
p2622
asS'CP002867.txt'
p2623
(lp2624
S'34162'
p2625
asS'CP001022.txt'
p2626
(lp2627
S'3034137'
p2628
asS'AP011124.txt'
p2629
(lp2630
S'49962'
p2631
asS'CP000119.txt'
p2632
(lp2633
S'366355'
p2634
asS'CP001880.txt'
p2635
(lp2636
S'105030'
p2637
asS'CP002603.txt'
p2638
(lp2639
S'128651'
p2640
asS'CP001854.txt'
p2641
(lp2642
S'6359370'
p2643
asS'AP010951.txt'
p2644
(lp2645
S'537300'
p2646
asS'AP003603.txt'
p2647
(lp2648
S'101966'
p2649
asS'CP002436.txt'
p2650
(lp2651
S'321081'
p2652
asS'CP000470.txt'
p2653
(lp2654
S'278943'
p2655
asS'CP000351.txt'
p2656
(lp2657
S'299763'
p2658
asS'CP000940.txt'
p2659
(lp2660
S'148781'
p2661
asS'CP000868.txt'
p2662
(lp2663
S'3448467'
p2664
asS'FP928999.txt'
p2665
(lp2666
S'2591'
p2667
asS'CP002434.txt'
p2668
(lp2669
S'793954'
p2670
asS'CP000005.txt'
p2671
(lp2672
S'26569'
p2673
asS'DQ489737.txt'
p2674
(lp2675
S'31464'
p2676
asS'CP000251.txt'
p2677
(lp2678
S'5013480'
p2679
asS'CP000422.txt'
p2680
(lp2681
S'1832388'
p2682
asS'AP006716.txt'
p2683
(lp2684
S'2685016'
p2685
asS'CP000508.txt'
p2686
(lp2687
S'307815'
p2688
asS'CP000960.txt'
p2689
(lp2690
S'1224596'
p2691
asS'CP002665.txt'
p2692
(lp2693
S'3526442'
p2694
asS'FR877557.txt'
p2695
(lp2696
S'4460106'
p2697
asS'AE005673.txt'
p2698
(lp2699
S'4016948'
p2700
asS'U00090.txt'
p2701
(lp2702
S'536166'
p2703
asS'EF079106.txt'
p2704
(lp2705
S'91182'
p2706
asS'CP000778.txt'
p2707
(lp2708
S'277996'
p2709
asS'CP000633.txt'
p2710
(lp2711
S'3726376'
p2712
asS'CP000143.txt'
p2713
(lp2714
S'3188610'
p2715
asS'FP236830.txt'
p2716
(lp2717
S'169779'
p2718
asS'CP001769.txt'
p2719
(lp2720
S'8078758'
p2721
asS'CP000604.txt'
p2722
(lp2723
S'176474'
p2724
asS'BA000036.txt'
p2725
(lp2726
S'3309402'
p2727
asS'CP000086.txt'
p2728
(lp2729
S'3809202'
p2730
asS'AY639886.txt'
p2731
(lp2732
S'5361'
p2733
asS'CP000322.txt'
p2734
(lp2735
S'121409'
p2736
asS'CP000700.txt'
p2737
(lp2738
S'310229'
p2739
asS'CR555308.txt'
p2740
(lp2741
S'223671'
p2742
asS'CP002878.txt'
p2743
(lp2744
S'2684607'
p2745
asS'FR856862.txt'
p2746
(lp2747
S'3911487'
p2748
asS'AE001826.txt'
p2749
(lp2750
S'177467'
p2751
asS'DQ489739.txt'
p2752
(lp2753
S'12184'
p2754
asS'BA000013.txt'
p2755
(lp2756
S'351912'
p2757
asS'AP009044.txt'
p2758
(lp2759
S'3314180'
p2760
asS'U80928.txt'
p2761
(lp2762
S'371255'
p2763
asS'CP002782.txt'
p2764
(lp2765
S'1680880'
p2766
asS'AE017262.txt'
p2767
(lp2768
S'2905188'
p2769
asS'CP002604.txt'
p2770
(lp2771
S'403587'
p2772
asS'CP001703.txt'
p2773
(lp2774
S'23871'
p2775
asS'AE014299.txt'
p2776
(lp2777
S'4969804'
p2778
asS'CP002854.txt'
p2779
(lp2780
S'18462'
p2781
asS'AE009952.txt'
p2782
(lp2783
S'4600756'
p2784
asS'CP000904.txt'
p2785
(lp2786
S'417055'
p2787
asS'CP002864.txt'
p2788
(lp2789
S'38785'
p2790
asS'CP001981.txt'
p2791
(lp2792
S'243934'
p2793
asS'AE008924.txt'
p2794
(lp2795
S'33701'
p2796
asS'CP002545.txt'
p2797
(lp2798
S'4635237'
p2799
asS'CP000302.txt'
p2800
(lp2801
S'4545907'
p2802
asS'CP002437.txt'
p2803
(lp2804
S'318112'
p2805
asS'AE001825.txt'
p2806
(lp2807
S'412349'
p2808
asS'CP000271.txt'
p2809
(lp2810
S'3363524'
p2811
asS'CP002371.txt'
p2812
(lp2813
S'1258279'
p2814
asS'CU468131.txt'
p2815
(lp2816
S'48752'
p2817
asS'CP000647.txt'
p2818
(lp2819
S'5315121'
p2820
asS'CP000484.txt'
p2821
(lp2822
S'30723'
p2823
asS'CP001023.txt'
p2824
(lp2825
S'4886'
p2826
asS'FQ311476.txt'
p2827
(lp2828
S'8529'
p2829
asS'CP001046.txt'
p2830
(lp2831
S'595109'
p2832
asS'CP002507.txt'
p2833
(lp2834
S'133487'
p2835
asS'CP000146.txt'
p2836
(lp2837
S'105285'
p2838
asS'AM236083.txt'
p2839
(lp2840
S'352783'
p2841
asS'CP002657.txt'
p2842
(lp2843
S'4995264'
p2844
asS'CP000317.txt'
p2845
(lp2846
S'360406'
p2847
asS'AE016958.txt'
p2848
(lp2849
S'4829782'
p2850
asS'CP002279.txt'
p2851
(lp2852
S'6884445'
p2853
asS'CP001044.txt'
p2854
(lp2855
S'2697375'
p2856
asS'CP000431.txt'
p2857
(lp2858
S'7804766'
p2859
asS'CP000529.txt'
p2860
(lp2861
S'4410292'
p2862
asS'CP001749.txt'
p2863
(lp2864
S'14220'
p2865
asS'AP012052.txt'
p2866
(lp2867
S'3982035'
p2868
asS'CP001655.txt'
p2869
(lp2870
S'4813855'
p2871
asS'CP002821.txt'
p2872
(lp2873
S'3539448'
p2874
asS'CP002536.txt'
p2875
(lp2876
S'2147061'
p2877
asS'AP011119.txt'
p2878
(lp2879
S'4368'
p2880
asS'CP002431.txt'
p2881
(lp2882
S'3629110'
p2883
asS'CP000659.txt'
p2884
(lp2885
S'16661'
p2886
asS'CP001390.txt'
p2887
(lp2888
S'4304502'
p2889
asS'CP002520.txt'
p2890
(lp2891
S'2770303'
p2892
asS'CP002061.txt'
p2893
(lp2894
S'21876'
p2895
asS'CP000392.txt'
p2896
(lp2897
S'47562'
p2898
asS'AM711867.txt'
p2899
(lp2900
S'3297892'
p2901
asS'CP000959.txt'
p2902
(lp2903
S'3213912'
p2904
asS'CP000648.txt'
p2905
(lp2906
S'175880'
p2907
asS'CP002472.txt'
p2908
(lp2909
S'3073080'
p2910
asS'BX248583.txt'
p2911
(lp2912
S'705558'
p2913
asS'CP001636.txt'
p2914
(lp2915
S'1128645'
p2916
asS'DQ489738.txt'
p2917
(lp2918
S'17972'
p2919
asS'CP001920.txt'
p2920
(lp2921
S'84654'
p2922
asS'CP000252.txt'
p2923
(lp2924
S'3179301'
p2925
asS'CP000082.txt'
p2926
(lp2927
S'2650702'
p2928
asS'CP002785.txt'
p2929
(lp2930
S'70500'
p2931
asS'CP000469.txt'
p2932
(lp2933
S'4972205'
p2934
asS'CP000323.txt'
p2935
(lp2936
S'3059877'
p2937
asS'CP000490.txt'
p2938
(lp2939
S'1730098'
p2940
asS'AE001438.txt'
p2941
(lp2942
S'192001'
p2943
asS'DQ232586.txt'
p2944
(lp2945
S'114046'
p2946
asS'CP002396.txt'
p2947
(lp2948
S'1315950'
p2949
asS'CP000621.txt'
p2950
(lp2951
S'88097'
p2952
asS'CP001175.txt'
p2953
(lp2954
S'2976213'
p2955
asS'CP000135.txt'
p2956
(lp2957
S'184339'
p2958
asS'CP001340.txt'
p2959
(lp2960
S'4042930'
p2961
asS'CP002162.txt'
p2962
(lp2963
S'7025560'
p2964
asS'BX936398.txt'
p2965
(lp2966
S'4744672'
p2967
asS'CP001940.txt'
p2968
(lp2969
S'3097764'
p2970
asS'CP002573.txt'
p2971
(lp2972
S'2932226'
p2973
asS'CP000933.txt'
p2974
(lp2975
S'46202'
p2976
asS'AE016824.txt'
p2977
(lp2978
S'350182'
p2979
asS'CP000360.txt'
p2980
(lp2981
S'5650369'
p2982
asS'CP000007.txt'
p2983
(lp2984
S'13224'
p2985
asS'CP000665.txt'
p2986
(lp2987
S'36199'
p2988
asS'CP000350.txt'
p2989
(lp2990
S'3576474'
p2991
asS'CP002250.txt'
p2992
(lp2993
S'601552'
p2994
asS'CP002629.txt'
p2995
(lp2996
S'3282537'
p2997
asS'CP001654.txt'
p2998
(lp2999
S'4679451'
p3000
asS'CP001226.txt'
p3001
(lp3002
S'143796'
p3003
asS'FN543094.txt'
p3004
(lp3005
S'138340'
p3006
asS'AP008935.txt'
p3007
(lp3008
S'38455'
p3009
asS'CP001964.txt'
p3010
(lp3011
S'4123180'
p3012
asS'CP002447.txt'
p3013
(lp3014
S'6264490'
p3015
asS'CP002161.txt'
p3016
(lp3017
S'208565'
p3018
asS'CP002273.txt'
p3019
(lp3020
S'4276903'
p3021
asS'AP006618.txt'
p3022
(lp3023
S'6021226'
p3024
asS'CP000115.txt'
p3025
(lp3026
S'3402094'
p3027
asS'CP002538.txt'
p3028
(lp3029
S'195801'
p3030
asS'CP000004.txt'
p3031
(lp3032
S'163187'
p3033
asS'CP001998.txt'
p3034
(lp3035
S'3750772'
p3036
asS'CU468135.txt'
p3037
(lp3038
S'3883468'
p3039
asS'FN392239.txt'
p3040
(lp3041
S'4961'
p3042
asS'CP001826.txt'
p3043
(lp3044
S'1074635'
p3045
asS'CP001649.txt'
p3046
(lp3047
S'4289848'
p3048
asS'CP000530.txt'
p3049
(lp3050
S'353292'
p3051
asS'CP002008.txt'
p3052
(lp3053
S'4655623'
p3054
asS'CP001990.txt'
p3055
(lp3056
S'164407'
p3057
asS'CP002433.txt'
p3058
(lp3059
S'4368709'
p3060
asS'CP002853.txt'
p3061
(lp3062
S'31693'
p3063
asS'FP929040.txt'
p3064
(lp3065
S'4908760'
p3066
asS'CP001300.txt'
p3067
(lp3068
S'22618'
p3069
asS'CP001282.txt'
p3070
(lp3071
S'78375'
p3072
asS'CP000016.txt'
p3073
(lp3074
S'791655'
p3075
asS'CP001041.txt'
p3076
(lp3077
S'65941'
p3078
asS'CP002177.txt'
p3079
(lp3080
S'3862531'
p3081
asS'CP001744.txt'
p3082
(lp3083
S'5423076'
p3084
asS'CP002601.txt'
p3085
(lp3086
S'276216'
p3087
asS'CP002026.txt'
p3088
(lp3089
S'4765024'
p3090
as.